; Function Attrs: nounwind uwtable
define internal ptr @get_date_fromdate(ptr readnone captures(none) %0, ptr noundef %1) #0 {
  %3 = alloca i32, align 4
  %4 = alloca i32, align 4
  %5 = alloca i32, align 4
  %6 = alloca i32, align 4
  call void @llvm.lifetime.start.p0(i64 4, ptr nonnull %3) #4
  call void @llvm.lifetime.start.p0(i64 4, ptr nonnull %4) #4
  call void @llvm.lifetime.start.p0(i64 4, ptr nonnull %5) #4
  call void @llvm.lifetime.start.p0(i64 4, ptr nonnull %6) #4
  %7 = call i32 (ptr, ptr, ...) @PyArg_ParseTuple(ptr noundef %1, ptr noundef nonnull @.str.25, ptr noundef nonnull %3, ptr noundef nonnull %4, ptr noundef nonnull %5, ptr noundef nonnull %6) #4
  %.not = icmp eq i32 %7, 0
  br i1 %.not, label %17, label %8

8:                                                ; preds = %2
  %9 = load ptr, ptr @PyDateTimeAPI, align 8, !tbaa !24
  %10 = getelementptr inbounds nuw i8, ptr %9, i64 48
  %11 = load ptr, ptr %10, align 8, !tbaa !32
  %12 = load i32, ptr %4, align 4, !tbaa !22
  %13 = load i32, ptr %5, align 4, !tbaa !22
  %14 = load i32, ptr %6, align 4, !tbaa !22
  %15 = load ptr, ptr %9, align 8, !tbaa !25
  %16 = call ptr %11(i32 noundef %12, i32 noundef %13, i32 noundef %14, ptr noundef %15) #4
  br label %17

17:                                               ; preds = %8, %2
  %.03 = phi ptr [ null, %2 ], [ %16, %8 ]
  call void @llvm.lifetime.end.p0(i64 4, ptr nonnull %6) #4
  call void @llvm.lifetime.end.p0(i64 4, ptr nonnull %5) #4
  call void @llvm.lifetime.end.p0(i64 4, ptr nonnull %4) #4
  call void @llvm.lifetime.end.p0(i64 4, ptr nonnull %3) #4
  ret ptr %.03
}